
notmain.elf:     file format elf32-littlearm


Disassembly of section .text:

402f1000 <_start>:
402f1000:	e59fd024 	ldr	sp, [pc, #36]	; 402f102c <ASMDELAY+0xc>
402f1004:	eb000019 	bl	402f1070 <notmain>

402f1008 <hang>:
402f1008:	eafffffe 	b	402f1008 <hang>

402f100c <PUT32>:
402f100c:	e5801000 	str	r1, [r0]
402f1010:	e12fff1e 	bx	lr

402f1014 <GET32>:
402f1014:	e5900000 	ldr	r0, [r0]
402f1018:	e12fff1e 	bx	lr

402f101c <dummy>:
402f101c:	e12fff1e 	bx	lr

402f1020 <ASMDELAY>:
402f1020:	e2500001 	subs	r0, r0, #1
402f1024:	1afffffd 	bne	402f1020 <ASMDELAY>
402f1028:	e12fff1e 	bx	lr
402f102c:	40300000 	eorsmi	r0, r0, r0

402f1030 <binary_cnt>:
402f1030:	e92d4010 	push	{r4, lr}
402f1034:	e59f0028 	ldr	r0, [pc, #40]	; 402f1064 <binary_cnt+0x34>
402f1038:	ebfffff5 	bl	402f1014 <GET32>
402f103c:	e1a04000 	mov	r4, r0
402f1040:	e3a0161e 	mov	r1, #31457280	; 0x1e00000
402f1044:	e59f001c 	ldr	r0, [pc, #28]	; 402f1068 <binary_cnt+0x38>
402f1048:	ebffffef 	bl	402f100c <PUT32>
402f104c:	e354061e 	cmp	r4, #31457280	; 0x1e00000
402f1050:	12841602 	addne	r1, r4, #2097152	; 0x200000
402f1054:	159f0010 	ldrne	r0, [pc, #16]	; 402f106c <binary_cnt+0x3c>
402f1058:	1bffffeb 	blne	402f100c <PUT32>
402f105c:	e8bd4010 	pop	{r4, lr}
402f1060:	e12fff1e 	bx	lr
402f1064:	4804c13c 	stmdami	r4, {r2, r3, r4, r5, r8, lr, pc}
402f1068:	4804c190 	stmdami	r4, {r4, r7, r8, lr, pc}
402f106c:	4804c194 	stmdami	r4, {r2, r4, r7, r8, lr, pc}

402f1070 <notmain>:
402f1070:	e92d4070 	push	{r4, r5, r6, lr}
402f1074:	e3a01002 	mov	r1, #2
402f1078:	e59f0068 	ldr	r0, [pc, #104]	; 402f10e8 <notmain+0x78>
402f107c:	ebffffe2 	bl	402f100c <PUT32>
402f1080:	e59f5060 	ldr	r5, [pc, #96]	; 402f10e8 <notmain+0x78>
402f1084:	e1a00005 	mov	r0, r5
402f1088:	ebffffe1 	bl	402f1014 <GET32>
402f108c:	e2104803 	ands	r4, r0, #196608	; 0x30000
402f1090:	1afffffb 	bne	402f1084 <notmain+0x14>
402f1094:	e3e0161e 	mvn	r1, #31457280	; 0x1e00000
402f1098:	e59f004c 	ldr	r0, [pc, #76]	; 402f10ec <notmain+0x7c>
402f109c:	ebffffda 	bl	402f100c <PUT32>
402f10a0:	e3a01003 	mov	r1, #3
402f10a4:	e59f0044 	ldr	r0, [pc, #68]	; 402f10f0 <notmain+0x80>
402f10a8:	ebffffd7 	bl	402f100c <PUT32>
402f10ac:	e1a01004 	mov	r1, r4
402f10b0:	e59f003c 	ldr	r0, [pc, #60]	; 402f10f4 <notmain+0x84>
402f10b4:	ebffffd4 	bl	402f100c <PUT32>
402f10b8:	e59f4038 	ldr	r4, [pc, #56]	; 402f10f8 <notmain+0x88>
402f10bc:	e1a00004 	mov	r0, r4
402f10c0:	ebffffd3 	bl	402f1014 <GET32>
402f10c4:	e3100902 	tst	r0, #32768	; 0x8000
402f10c8:	1afffffb 	bne	402f10bc <notmain+0x4c>
402f10cc:	ebffffd7 	bl	402f1030 <binary_cnt>
402f10d0:	e1a00004 	mov	r0, r4
402f10d4:	ebffffce 	bl	402f1014 <GET32>
402f10d8:	e3100902 	tst	r0, #32768	; 0x8000
402f10dc:	0afffffb 	beq	402f10d0 <notmain+0x60>
402f10e0:	ebffffd2 	bl	402f1030 <binary_cnt>
402f10e4:	eafffff4 	b	402f10bc <notmain+0x4c>
402f10e8:	44e000ac 	strbtmi	r0, [r0], #172	; 0xac
402f10ec:	4804c134 	stmdami	r4, {r2, r4, r5, r8, lr, pc}
402f10f0:	44e05038 	strbtmi	r5, [r0], #56	; 0x38
402f10f4:	4804c194 	stmdami	r4, {r2, r4, r7, r8, lr, pc}
402f10f8:	44e0503c 	strbtmi	r5, [r0], #60	; 0x3c

Disassembly of section .ARM.attributes:

00000000 <.ARM.attributes>:
   0:	00002a41 	andeq	r2, r0, r1, asr #20
   4:	61656100 	cmnvs	r5, r0, lsl #2
   8:	01006962 	tsteq	r0, r2, ror #18
   c:	00000020 	andeq	r0, r0, r0, lsr #32
  10:	4d524105 	ldfmie	f4, [r2, #-20]	; 0xffffffec
  14:	54347620 	ldrtpl	r7, [r4], #-1568	; 0xfffff9e0
  18:	08020600 	stmdaeq	r2, {r9, sl}
  1c:	12010901 	andne	r0, r1, #16384	; 0x4000
  20:	15011404 	strne	r1, [r1, #-1028]	; 0xfffffbfc
  24:	18031701 	stmdane	r3, {r0, r8, r9, sl, ip}
  28:	Address 0x0000000000000028 is out of bounds.


Disassembly of section .comment:

00000000 <.comment>:
   0:	3a434347 	bcc	10d0d24 <_start-0x3f2202dc>
   4:	72412820 	subvc	r2, r1, #32, 16	; 0x200000
   8:	52206863 	eorpl	r6, r0, #6488064	; 0x630000
   c:	736f7065 	cmnvc	pc, #101	; 0x65
  10:	726f7469 	rsbvc	r7, pc, #1761607680	; 0x69000000
  14:	38202979 	stmdacc	r0!, {r0, r3, r4, r5, r6, r8, fp, sp}
  18:	302e322e 	eorcc	r3, lr, lr, lsr #4
	...
